; Function Attrs: mustprogress uwtable
define noundef nonnull align 8 dereferenceable(56) ptr @_ZN32pxrInternal_v0_24__pxrReserved__23HdTetMeshTopologySchema17GetDefaultLocatorEv() local_unnamed_addr #1 align 2 personality ptr @__gxx_personality_v0 {
  %1 = load atomic i8, ptr @_ZGVZN32pxrInternal_v0_24__pxrReserved__23HdTetMeshTopologySchema17GetDefaultLocatorEvE7locator acquire, align 8
  %2 = icmp eq i8 %1, 0
  br i1 %2, label %3, label %12, !prof !33

3:                                                ; preds = %0
  %4 = tail call i32 @__cxa_guard_acquire(ptr nonnull @_ZGVZN32pxrInternal_v0_24__pxrReserved__23HdTetMeshTopologySchema17GetDefaultLocatorEvE7locator) #17
  %.not = icmp eq i32 %4, 0
  br i1 %.not, label %12, label %5

5:                                                ; preds = %3
  %6 = invoke noundef nonnull align 8 dereferenceable(56) ptr @_ZN32pxrInternal_v0_24__pxrReserved__15HdTetMeshSchema17GetDefaultLocatorEv()
          to label %7 unwind label %13

7:                                                ; preds = %5
  %8 = invoke noundef nonnull align 8 dereferenceable(8) ptr @_ZN32pxrInternal_v0_24__pxrReserved__23HdTetMeshTopologySchema14GetSchemaTokenEv()
          to label %9 unwind label %13

9:                                                ; preds = %7
  invoke void @_ZNK32pxrInternal_v0_24__pxrReserved__19HdDataSourceLocator6AppendERKNS_7TfTokenE(ptr dead_on_unwind nonnull writable sret(%"class.pxrInternal_v0_24__pxrReserved__::HdDataSourceLocator") align 8 @_ZZN32pxrInternal_v0_24__pxrReserved__23HdTetMeshTopologySchema17GetDefaultLocatorEvE7locator, ptr noundef nonnull align 8 dereferenceable(56) %6, ptr noundef nonnull align 8 dereferenceable(8) %8)
          to label %10 unwind label %13

10:                                               ; preds = %9
  %11 = tail call i32 @__cxa_atexit(ptr nonnull @_ZN32pxrInternal_v0_24__pxrReserved__19HdDataSourceLocatorD2Ev, ptr nonnull @_ZZN32pxrInternal_v0_24__pxrReserved__23HdTetMeshTopologySchema17GetDefaultLocatorEvE7locator, ptr nonnull @__dso_handle) #17
  tail call void @__cxa_guard_release(ptr nonnull @_ZGVZN32pxrInternal_v0_24__pxrReserved__23HdTetMeshTopologySchema17GetDefaultLocatorEvE7locator) #17
  br label %12

12:                                               ; preds = %10, %3, %0
  ret ptr @_ZZN32pxrInternal_v0_24__pxrReserved__23HdTetMeshTopologySchema17GetDefaultLocatorEvE7locator

13:                                               ; preds = %9, %7, %5
  %14 = landingpad { ptr, i32 }
          cleanup
  tail call void @__cxa_guard_abort(ptr nonnull @_ZGVZN32pxrInternal_v0_24__pxrReserved__23HdTetMeshTopologySchema17GetDefaultLocatorEvE7locator) #17
  resume { ptr, i32 } %14
}